target datalayout = "e-m:e-p270:32:32-p271:32:32-p272:64:64-i64:64-i128:128-f80:128-n8:16:32:64-S128"
target triple = "x86_64-unknown-linux-gnu"

%"class.boost::detail::shared_count" = type { ptr }
%"class.QuantLib::DayCounter" = type { %"class.boost::shared_ptr.6" }
%"class.boost::shared_ptr.6" = type { ptr, %"class.boost::detail::shared_count" }
%"class.QuantLib::Date" = type { i64 }
%"class.QuantLib::InterestRate" = type { double, %"class.QuantLib::DayCounter", i32, i8, double }

; Function Attrs: mustprogress uwtable
define void @_ZNK8QuantLib18YieldTermStructure8zeroRateERKNS_4DateERKNS_10DayCounterENS_11CompoundingENS_9FrequencyEb(ptr dead_on_unwind noalias writable sret(%"class.QuantLib::InterestRate") align 8 %agg.result, ptr noundef nonnull align 8 dereferenceable(152) %this, ptr noundef nonnull align 8 dereferenceable(8) %d, ptr noundef nonnull align 8 dereferenceable(16) %dayCounter, i32 noundef %comp, i32 noundef %freq, i1 noundef zeroext %extrapolate) #2 align 2 {
entry:
  %result.ptr = alloca ptr, align 8
  %this.addr = alloca ptr, align 8
  %d.addr = alloca ptr, align 8
  %dayCounter.addr = alloca ptr, align 8
  %comp.addr = alloca i32, align 4
  %freq.addr = alloca i32, align 4
  %extrapolate.addr = alloca i8, align 1
  %t = alloca double, align 8
  %compound = alloca double, align 8
  %cleanup.dest.slot = alloca i32, align 4
  %compound3 = alloca double, align 8
  %ref.tmp = alloca %"class.QuantLib::Date", align 8
  %ref.tmp8 = alloca %"class.QuantLib::Date", align 8
  store ptr %agg.result, ptr %result.ptr, align 8
  store ptr %this, ptr %this.addr, align 8, !tbaa !3
  store ptr %d, ptr %d.addr, align 8, !tbaa !3
  store ptr %dayCounter, ptr %dayCounter.addr, align 8, !tbaa !3
  store i32 %comp, ptr %comp.addr, align 4, !tbaa !58
  store i32 %freq, ptr %freq.addr, align 4, !tbaa !60
  %storedv = zext i1 %extrapolate to i8
  store i8 %storedv, ptr %extrapolate.addr, align 1, !tbaa !51
  %this1 = load ptr, ptr %this.addr, align 8
  call void @llvm.lifetime.start.p0(i64 8, ptr %t) #20
  %0 = load ptr, ptr %d.addr, align 8, !tbaa !3
  %call = call noundef double @_ZNK8QuantLib13TermStructure17timeFromReferenceERKNS_4DateE(ptr noundef nonnull align 8 dereferenceable(64) %this1, ptr noundef nonnull align 8 dereferenceable(8) %0)
  store double %call, ptr %t, align 8, !tbaa !48
  %1 = load double, ptr %t, align 8, !tbaa !48
  %cmp = fcmp oeq double %1, 0.000000e+00
  br i1 %cmp, label %if.then, label %if.end

if.then:                                          ; preds = %entry
  call void @llvm.lifetime.start.p0(i64 8, ptr %compound) #20
  %2 = load i8, ptr %extrapolate.addr, align 1, !tbaa !51, !range !53, !noundef !54
  %loadedv = trunc i8 %2 to i1
  %call2 = call noundef double @_ZNK8QuantLib18YieldTermStructure8discountEdb(ptr noundef nonnull align 8 dereferenceable(152) %this1, double noundef 1.000000e-04, i1 noundef zeroext %loadedv)
  %div = fdiv double 1.000000e+00, %call2
  store double %div, ptr %compound, align 8, !tbaa !48
  %3 = load double, ptr %compound, align 8, !tbaa !48
  %4 = load ptr, ptr %dayCounter.addr, align 8, !tbaa !3
  %5 = load i32, ptr %comp.addr, align 4, !tbaa !58
  %6 = load i32, ptr %freq.addr, align 4, !tbaa !60
  call void @_ZN8QuantLib12InterestRate11impliedRateEdRKNS_10DayCounterENS_11CompoundingENS_9FrequencyEd(ptr dead_on_unwind writable sret(%"class.QuantLib::InterestRate") align 8 %agg.result, double noundef %3, ptr noundef nonnull align 8 dereferenceable(16) %4, i32 noundef %5, i32 noundef %6, double noundef 1.000000e-04)
  store i32 1, ptr %cleanup.dest.slot, align 4
  call void @llvm.lifetime.end.p0(i64 8, ptr %compound) #20
  br label %cleanup

if.end:                                           ; preds = %entry
  call void @llvm.lifetime.start.p0(i64 8, ptr %compound3) #20
  %7 = load double, ptr %t, align 8, !tbaa !48
  %8 = load i8, ptr %extrapolate.addr, align 1, !tbaa !51, !range !53, !noundef !54
  %loadedv4 = trunc i8 %8 to i1
  %call5 = call noundef double @_ZNK8QuantLib18YieldTermStructure8discountEdb(ptr noundef nonnull align 8 dereferenceable(152) %this1, double noundef %7, i1 noundef zeroext %loadedv4)
  %div6 = fdiv double 1.000000e+00, %call5
  store double %div6, ptr %compound3, align 8, !tbaa !48
  %9 = load double, ptr %compound3, align 8, !tbaa !48
  %10 = load ptr, ptr %dayCounter.addr, align 8, !tbaa !3
  %11 = load i32, ptr %comp.addr, align 4, !tbaa !58
  %12 = load i32, ptr %freq.addr, align 4, !tbaa !60
  %vtable = load ptr, ptr %this1, align 8, !tbaa !10
  %vfn = getelementptr inbounds ptr, ptr %vtable, i64 5
  %13 = load ptr, ptr %vfn, align 8
  %call7 = call noundef nonnull align 8 dereferenceable(8) ptr %13(ptr noundef nonnull align 8 dereferenceable(64) %this1)
  %14 = load ptr, ptr %d.addr, align 8, !tbaa !3
  call void @llvm.lifetime.start.p0(i64 8, ptr %ref.tmp) #20
  call void @_ZN8QuantLib4DateC1Ev(ptr noundef nonnull align 8 dereferenceable(8) %ref.tmp)
  call void @llvm.lifetime.start.p0(i64 8, ptr %ref.tmp8) #20
  call void @_ZN8QuantLib4DateC1Ev(ptr noundef nonnull align 8 dereferenceable(8) %ref.tmp8)
  call void @_ZN8QuantLib12InterestRate11impliedRateEdRKNS_10DayCounterENS_11CompoundingENS_9FrequencyERKNS_4DateES8_S8_S8_(ptr dead_on_unwind writable sret(%"class.QuantLib::InterestRate") align 8 %agg.result, double noundef %9, ptr noundef nonnull align 8 dereferenceable(16) %10, i32 noundef %11, i32 noundef %12, ptr noundef nonnull align 8 dereferenceable(8) %call7, ptr noundef nonnull align 8 dereferenceable(8) %14, ptr noundef nonnull align 8 dereferenceable(8) %ref.tmp, ptr noundef nonnull align 8 dereferenceable(8) %ref.tmp8)
  call void @llvm.lifetime.end.p0(i64 8, ptr %ref.tmp8) #20
  call void @llvm.lifetime.end.p0(i64 8, ptr %ref.tmp) #20
  store i32 1, ptr %cleanup.dest.slot, align 4
  call void @llvm.lifetime.end.p0(i64 8, ptr %compound3) #20
  br label %cleanup

cleanup:                                          ; preds = %if.end, %if.then
  call void @llvm.lifetime.end.p0(i64 8, ptr %t) #20
  ret void
}