; Function Attrs: mustprogress uwtable
define void @_ZNK8QuantLib18YieldTermStructure8zeroRateERKNS_4DateERKNS_10DayCounterENS_11CompoundingENS_9FrequencyEb(ptr dead_on_unwind noalias writable sret(%"class.QuantLib::InterestRate") align 8 %agg.result, ptr noundef nonnull align 8 dereferenceable(152) %this, ptr noundef nonnull align 8 dereferenceable(8) %d, ptr noundef nonnull align 8 dereferenceable(16) %dayCounter, i32 noundef %comp, i32 noundef %freq, i1 noundef zeroext %extrapolate) local_unnamed_addr #5 align 2 {
entry:
  %ref.tmp = alloca %"class.QuantLib::Date", align 8
  %ref.tmp8 = alloca %"class.QuantLib::Date", align 8
  %call = tail call noundef double @_ZNK8QuantLib13TermStructure17timeFromReferenceERKNS_4DateE(ptr noundef nonnull align 8 dereferenceable(64) %this, ptr noundef nonnull align 8 dereferenceable(8) %d)
  %cmp = fcmp oeq double %call, 0.000000e+00
  br i1 %cmp, label %if.then, label %if.end

if.then:                                          ; preds = %entry
  %call2 = tail call noundef double @_ZNK8QuantLib18YieldTermStructure8discountEdb(ptr noundef nonnull align 8 dereferenceable(152) %this, double noundef 1.000000e-04, i1 noundef zeroext %extrapolate)
  %div = fdiv double 1.000000e+00, %call2
  tail call void @_ZN8QuantLib12InterestRate11impliedRateEdRKNS_10DayCounterENS_11CompoundingENS_9FrequencyEd(ptr dead_on_unwind writable sret(%"class.QuantLib::InterestRate") align 8 %agg.result, double noundef %div, ptr noundef nonnull align 8 dereferenceable(16) %dayCounter, i32 noundef %comp, i32 noundef %freq, double noundef 1.000000e-04)
  br label %cleanup

if.end:                                           ; preds = %entry
  %call5 = tail call noundef double @_ZNK8QuantLib18YieldTermStructure8discountEdb(ptr noundef nonnull align 8 dereferenceable(152) %this, double noundef %call, i1 noundef zeroext %extrapolate)
  %div6 = fdiv double 1.000000e+00, %call5
  %vtable = load ptr, ptr %this, align 8, !tbaa !10
  %vfn = getelementptr inbounds i8, ptr %vtable, i64 40
  %0 = load ptr, ptr %vfn, align 8
  %call7 = tail call noundef nonnull align 8 dereferenceable(8) ptr %0(ptr noundef nonnull align 8 dereferenceable(64) %this)
  call void @llvm.lifetime.start.p0(i64 8, ptr nonnull %ref.tmp) #25
  call void @_ZN8QuantLib4DateC1Ev(ptr noundef nonnull align 8 dereferenceable(8) %ref.tmp)
  call void @llvm.lifetime.start.p0(i64 8, ptr nonnull %ref.tmp8) #25
  call void @_ZN8QuantLib4DateC1Ev(ptr noundef nonnull align 8 dereferenceable(8) %ref.tmp8)
  call void @_ZN8QuantLib12InterestRate11impliedRateEdRKNS_10DayCounterENS_11CompoundingENS_9FrequencyERKNS_4DateES8_S8_S8_(ptr dead_on_unwind writable sret(%"class.QuantLib::InterestRate") align 8 %agg.result, double noundef %div6, ptr noundef nonnull align 8 dereferenceable(16) %dayCounter, i32 noundef %comp, i32 noundef %freq, ptr noundef nonnull align 8 dereferenceable(8) %call7, ptr noundef nonnull align 8 dereferenceable(8) %d, ptr noundef nonnull align 8 dereferenceable(8) %ref.tmp, ptr noundef nonnull align 8 dereferenceable(8) %ref.tmp8)
  call void @llvm.lifetime.end.p0(i64 8, ptr nonnull %ref.tmp8) #25
  call void @llvm.lifetime.end.p0(i64 8, ptr nonnull %ref.tmp) #25
  br label %cleanup

cleanup:                                          ; preds = %if.end, %if.then
  ret void
}